target datalayout = "e-m:e-p270:32:32-p271:32:32-p272:64:64-i64:64-i128:128-f80:128-n8:16:32:64-S128"
target triple = "x86_64-pc-linux-gnu"

%struct.AVChannelLayout = type { i32, i32, %union.anon.1, ptr }
%union.anon.1 = type { i64 }
%struct.AVRational = type { i32, i32 }
%struct.FillBordersContext = type { ptr, i32, i32, i32, i32, i32, i32, i32, [4 x %struct.Borders], [4 x i32], [4 x i32], [4 x i8], [4 x i8], [4 x i8], ptr }
%struct.Borders = type { i32, i32, i32, i32 }
%struct.AVFrame = type { [8 x ptr], [8 x i32], ptr, i32, i32, i32, i32, i32, %struct.AVRational, i64, i64, %struct.AVRational, i32, ptr, i32, i32, [8 x ptr], ptr, i32, ptr, i32, i32, i32, i32, i32, i32, i32, i64, ptr, i32, ptr, ptr, i64, i64, i64, i64, ptr, %struct.AVChannelLayout, i64 }

; Function Attrs: nounwind uwtable
define internal void @mirror_borders8(ptr noundef %0, ptr noundef %1) #0 {
  %3 = alloca ptr, align 8
  %4 = alloca ptr, align 8
  %5 = alloca i32, align 4
  %6 = alloca i32, align 4
  %7 = alloca i32, align 4
  %8 = alloca ptr, align 8
  %9 = alloca i64, align 8
  store ptr %0, ptr %3, align 8, !tbaa !37
  store ptr %1, ptr %4, align 8, !tbaa !26
  call void @llvm.lifetime.start.p0(i64 4, ptr %5) #8
  call void @llvm.lifetime.start.p0(i64 4, ptr %6) #8
  call void @llvm.lifetime.start.p0(i64 4, ptr %7) #8
  store i32 0, ptr %5, align 4, !tbaa !11
  br label %10

10:                                               ; preds = %282, %2
  %11 = load i32, ptr %5, align 4, !tbaa !11
  %12 = load ptr, ptr %3, align 8, !tbaa !37
  %13 = getelementptr inbounds nuw %struct.FillBordersContext, ptr %12, i32 0, i32 6
  %14 = load i32, ptr %13, align 4, !tbaa !48
  %15 = icmp slt i32 %11, %14
  br i1 %15, label %16, label %285

16:                                               ; preds = %10
  call void @llvm.lifetime.start.p0(i64 8, ptr %8) #8
  %17 = load ptr, ptr %4, align 8, !tbaa !26
  %18 = getelementptr inbounds nuw %struct.AVFrame, ptr %17, i32 0, i32 0
  %19 = load i32, ptr %5, align 4, !tbaa !11
  %20 = sext i32 %19 to i64
  %21 = getelementptr inbounds [8 x ptr], ptr %18, i64 0, i64 %20
  %22 = load ptr, ptr %21, align 8, !tbaa !9
  store ptr %22, ptr %8, align 8, !tbaa !9
  call void @llvm.lifetime.start.p0(i64 8, ptr %9) #8
  %23 = load ptr, ptr %4, align 8, !tbaa !26
  %24 = getelementptr inbounds nuw %struct.AVFrame, ptr %23, i32 0, i32 1
  %25 = load i32, ptr %5, align 4, !tbaa !11
  %26 = sext i32 %25 to i64
  %27 = getelementptr inbounds [8 x i32], ptr %24, i64 0, i64 %26
  %28 = load i32, ptr %27, align 4, !tbaa !11
  %29 = sext i32 %28 to i64
  store i64 %29, ptr %9, align 8, !tbaa !70
  %30 = load ptr, ptr %3, align 8, !tbaa !37
  %31 = getelementptr inbounds nuw %struct.FillBordersContext, ptr %30, i32 0, i32 8
  %32 = load i32, ptr %5, align 4, !tbaa !11
  %33 = sext i32 %32 to i64
  %34 = getelementptr inbounds [4 x %struct.Borders], ptr %31, i64 0, i64 %33
  %35 = getelementptr inbounds nuw %struct.Borders, ptr %34, i32 0, i32 2
  %36 = load i32, ptr %35, align 4, !tbaa !63
  store i32 %36, ptr %6, align 4, !tbaa !11
  br label %37

37:                                               ; preds = %169, %16
  %38 = load i32, ptr %6, align 4, !tbaa !11
  %39 = load ptr, ptr %3, align 8, !tbaa !37
  %40 = getelementptr inbounds nuw %struct.FillBordersContext, ptr %39, i32 0, i32 10
  %41 = load i32, ptr %5, align 4, !tbaa !11
  %42 = sext i32 %41 to i64
  %43 = getelementptr inbounds [4 x i32], ptr %40, i64 0, i64 %42
  %44 = load i32, ptr %43, align 4, !tbaa !11
  %45 = load ptr, ptr %3, align 8, !tbaa !37
  %46 = getelementptr inbounds nuw %struct.FillBordersContext, ptr %45, i32 0, i32 8
  %47 = load i32, ptr %5, align 4, !tbaa !11
  %48 = sext i32 %47 to i64
  %49 = getelementptr inbounds [4 x %struct.Borders], ptr %46, i64 0, i64 %48
  %50 = getelementptr inbounds nuw %struct.Borders, ptr %49, i32 0, i32 3
  %51 = load i32, ptr %50, align 4, !tbaa !64
  %52 = sub nsw i32 %44, %51
  %53 = icmp slt i32 %38, %52
  br i1 %53, label %54, label %172

54:                                               ; preds = %37
  store i32 0, ptr %7, align 4, !tbaa !11
  br label %55

55:                                               ; preds = %96, %54
  %56 = load i32, ptr %7, align 4, !tbaa !11
  %57 = load ptr, ptr %3, align 8, !tbaa !37
  %58 = getelementptr inbounds nuw %struct.FillBordersContext, ptr %57, i32 0, i32 8
  %59 = load i32, ptr %5, align 4, !tbaa !11
  %60 = sext i32 %59 to i64
  %61 = getelementptr inbounds [4 x %struct.Borders], ptr %58, i64 0, i64 %60
  %62 = getelementptr inbounds nuw %struct.Borders, ptr %61, i32 0, i32 0
  %63 = load i32, ptr %62, align 4, !tbaa !60
  %64 = icmp slt i32 %56, %63
  br i1 %64, label %65, label %99

65:                                               ; preds = %55
  %66 = load ptr, ptr %8, align 8, !tbaa !9
  %67 = load i32, ptr %6, align 4, !tbaa !11
  %68 = sext i32 %67 to i64
  %69 = load i64, ptr %9, align 8, !tbaa !70
  %70 = mul nsw i64 %68, %69
  %71 = load ptr, ptr %3, align 8, !tbaa !37
  %72 = getelementptr inbounds nuw %struct.FillBordersContext, ptr %71, i32 0, i32 8
  %73 = load i32, ptr %5, align 4, !tbaa !11
  %74 = sext i32 %73 to i64
  %75 = getelementptr inbounds [4 x %struct.Borders], ptr %72, i64 0, i64 %74
  %76 = getelementptr inbounds nuw %struct.Borders, ptr %75, i32 0, i32 0
  %77 = load i32, ptr %76, align 4, !tbaa !60
  %78 = mul nsw i32 %77, 2
  %79 = sext i32 %78 to i64
  %80 = add nsw i64 %70, %79
  %81 = sub nsw i64 %80, 1
  %82 = load i32, ptr %7, align 4, !tbaa !11
  %83 = sext i32 %82 to i64
  %84 = sub nsw i64 %81, %83
  %85 = getelementptr inbounds i8, ptr %66, i64 %84
  %86 = load i8, ptr %85, align 1, !tbaa !66
  %87 = load ptr, ptr %8, align 8, !tbaa !9
  %88 = load i32, ptr %6, align 4, !tbaa !11
  %89 = sext i32 %88 to i64
  %90 = load i64, ptr %9, align 8, !tbaa !70
  %91 = mul nsw i64 %89, %90
  %92 = load i32, ptr %7, align 4, !tbaa !11
  %93 = sext i32 %92 to i64
  %94 = add nsw i64 %91, %93
  %95 = getelementptr inbounds i8, ptr %87, i64 %94
  store i8 %86, ptr %95, align 1, !tbaa !66
  br label %96

96:                                               ; preds = %65
  %97 = load i32, ptr %7, align 4, !tbaa !11
  %98 = add nsw i32 %97, 1
  store i32 %98, ptr %7, align 4, !tbaa !11
  br label %55, !llvm.loop !85

99:                                               ; preds = %55
  store i32 0, ptr %7, align 4, !tbaa !11
  br label %100

100:                                              ; preds = %165, %99
  %101 = load i32, ptr %7, align 4, !tbaa !11
  %102 = load ptr, ptr %3, align 8, !tbaa !37
  %103 = getelementptr inbounds nuw %struct.FillBordersContext, ptr %102, i32 0, i32 8
  %104 = load i32, ptr %5, align 4, !tbaa !11
  %105 = sext i32 %104 to i64
  %106 = getelementptr inbounds [4 x %struct.Borders], ptr %103, i64 0, i64 %105
  %107 = getelementptr inbounds nuw %struct.Borders, ptr %106, i32 0, i32 1
  %108 = load i32, ptr %107, align 4, !tbaa !62
  %109 = icmp slt i32 %101, %108
  br i1 %109, label %110, label %168

110:                                              ; preds = %100
  %111 = load ptr, ptr %8, align 8, !tbaa !9
  %112 = load i32, ptr %6, align 4, !tbaa !11
  %113 = sext i32 %112 to i64
  %114 = load i64, ptr %9, align 8, !tbaa !70
  %115 = mul nsw i64 %113, %114
  %116 = load ptr, ptr %3, align 8, !tbaa !37
  %117 = getelementptr inbounds nuw %struct.FillBordersContext, ptr %116, i32 0, i32 9
  %118 = load i32, ptr %5, align 4, !tbaa !11
  %119 = sext i32 %118 to i64
  %120 = getelementptr inbounds [4 x i32], ptr %117, i64 0, i64 %119
  %121 = load i32, ptr %120, align 4, !tbaa !11
  %122 = sext i32 %121 to i64
  %123 = add nsw i64 %115, %122
  %124 = load ptr, ptr %3, align 8, !tbaa !37
  %125 = getelementptr inbounds nuw %struct.FillBordersContext, ptr %124, i32 0, i32 8
  %126 = load i32, ptr %5, align 4, !tbaa !11
  %127 = sext i32 %126 to i64
  %128 = getelementptr inbounds [4 x %struct.Borders], ptr %125, i64 0, i64 %127
  %129 = getelementptr inbounds nuw %struct.Borders, ptr %128, i32 0, i32 1
  %130 = load i32, ptr %129, align 4, !tbaa !62
  %131 = sext i32 %130 to i64
  %132 = sub nsw i64 %123, %131
  %133 = sub nsw i64 %132, 1
  %134 = load i32, ptr %7, align 4, !tbaa !11
  %135 = sext i32 %134 to i64
  %136 = sub nsw i64 %133, %135
  %137 = getelementptr inbounds i8, ptr %111, i64 %136
  %138 = load i8, ptr %137, align 1, !tbaa !66
  %139 = load ptr, ptr %8, align 8, !tbaa !9
  %140 = load i32, ptr %6, align 4, !tbaa !11
  %141 = sext i32 %140 to i64
  %142 = load i64, ptr %9, align 8, !tbaa !70
  %143 = mul nsw i64 %141, %142
  %144 = load ptr, ptr %3, align 8, !tbaa !37
  %145 = getelementptr inbounds nuw %struct.FillBordersContext, ptr %144, i32 0, i32 9
  %146 = load i32, ptr %5, align 4, !tbaa !11
  %147 = sext i32 %146 to i64
  %148 = getelementptr inbounds [4 x i32], ptr %145, i64 0, i64 %147
  %149 = load i32, ptr %148, align 4, !tbaa !11
  %150 = sext i32 %149 to i64
  %151 = add nsw i64 %143, %150
  %152 = load ptr, ptr %3, align 8, !tbaa !37
  %153 = getelementptr inbounds nuw %struct.FillBordersContext, ptr %152, i32 0, i32 8
  %154 = load i32, ptr %5, align 4, !tbaa !11
  %155 = sext i32 %154 to i64
  %156 = getelementptr inbounds [4 x %struct.Borders], ptr %153, i64 0, i64 %155
  %157 = getelementptr inbounds nuw %struct.Borders, ptr %156, i32 0, i32 1
  %158 = load i32, ptr %157, align 4, !tbaa !62
  %159 = sext i32 %158 to i64
  %160 = sub nsw i64 %151, %159
  %161 = load i32, ptr %7, align 4, !tbaa !11
  %162 = sext i32 %161 to i64
  %163 = add nsw i64 %160, %162
  %164 = getelementptr inbounds i8, ptr %139, i64 %163
  store i8 %138, ptr %164, align 1, !tbaa !66
  br label %165

165:                                              ; preds = %110
  %166 = load i32, ptr %7, align 4, !tbaa !11
  %167 = add nsw i32 %166, 1
  store i32 %167, ptr %7, align 4, !tbaa !11
  br label %100, !llvm.loop !86

168:                                              ; preds = %100
  br label %169

169:                                              ; preds = %168
  %170 = load i32, ptr %6, align 4, !tbaa !11
  %171 = add nsw i32 %170, 1
  store i32 %171, ptr %6, align 4, !tbaa !11
  br label %37, !llvm.loop !87

172:                                              ; preds = %37
  store i32 0, ptr %6, align 4, !tbaa !11
  br label %173

173:                                              ; preds = %213, %172
  %174 = load i32, ptr %6, align 4, !tbaa !11
  %175 = load ptr, ptr %3, align 8, !tbaa !37
  %176 = getelementptr inbounds nuw %struct.FillBordersContext, ptr %175, i32 0, i32 8
  %177 = load i32, ptr %5, align 4, !tbaa !11
  %178 = sext i32 %177 to i64
  %179 = getelementptr inbounds [4 x %struct.Borders], ptr %176, i64 0, i64 %178
  %180 = getelementptr inbounds nuw %struct.Borders, ptr %179, i32 0, i32 2
  %181 = load i32, ptr %180, align 4, !tbaa !63
  %182 = icmp slt i32 %174, %181
  br i1 %182, label %183, label %216

183:                                              ; preds = %173
  %184 = load ptr, ptr %8, align 8, !tbaa !9
  %185 = load i32, ptr %6, align 4, !tbaa !11
  %186 = sext i32 %185 to i64
  %187 = load i64, ptr %9, align 8, !tbaa !70
  %188 = mul nsw i64 %186, %187
  %189 = getelementptr inbounds i8, ptr %184, i64 %188
  %190 = load ptr, ptr %8, align 8, !tbaa !9
  %191 = load ptr, ptr %3, align 8, !tbaa !37
  %192 = getelementptr inbounds nuw %struct.FillBordersContext, ptr %191, i32 0, i32 8
  %193 = load i32, ptr %5, align 4, !tbaa !11
  %194 = sext i32 %193 to i64
  %195 = getelementptr inbounds [4 x %struct.Borders], ptr %192, i64 0, i64 %194
  %196 = getelementptr inbounds nuw %struct.Borders, ptr %195, i32 0, i32 2
  %197 = load i32, ptr %196, align 4, !tbaa !63
  %198 = mul nsw i32 %197, 2
  %199 = sub nsw i32 %198, 1
  %200 = load i32, ptr %6, align 4, !tbaa !11
  %201 = sub nsw i32 %199, %200
  %202 = sext i32 %201 to i64
  %203 = load i64, ptr %9, align 8, !tbaa !70
  %204 = mul nsw i64 %202, %203
  %205 = getelementptr inbounds i8, ptr %190, i64 %204
  %206 = load ptr, ptr %3, align 8, !tbaa !37
  %207 = getelementptr inbounds nuw %struct.FillBordersContext, ptr %206, i32 0, i32 9
  %208 = load i32, ptr %5, align 4, !tbaa !11
  %209 = sext i32 %208 to i64
  %210 = getelementptr inbounds [4 x i32], ptr %207, i64 0, i64 %209
  %211 = load i32, ptr %210, align 4, !tbaa !11
  %212 = sext i32 %211 to i64
  call void @llvm.memcpy.p0.p0.i64(ptr align 1 %189, ptr align 1 %205, i64 %212, i1 false)
  br label %213

213:                                              ; preds = %183
  %214 = load i32, ptr %6, align 4, !tbaa !11
  %215 = add nsw i32 %214, 1
  store i32 %215, ptr %6, align 4, !tbaa !11
  br label %173, !llvm.loop !88

216:                                              ; preds = %173
  store i32 0, ptr %6, align 4, !tbaa !11
  br label %217

217:                                              ; preds = %278, %216
  %218 = load i32, ptr %6, align 4, !tbaa !11
  %219 = load ptr, ptr %3, align 8, !tbaa !37
  %220 = getelementptr inbounds nuw %struct.FillBordersContext, ptr %219, i32 0, i32 8
  %221 = load i32, ptr %5, align 4, !tbaa !11
  %222 = sext i32 %221 to i64
  %223 = getelementptr inbounds [4 x %struct.Borders], ptr %220, i64 0, i64 %222
  %224 = getelementptr inbounds nuw %struct.Borders, ptr %223, i32 0, i32 3
  %225 = load i32, ptr %224, align 4, !tbaa !64
  %226 = icmp slt i32 %218, %225
  br i1 %226, label %227, label %281

227:                                              ; preds = %217
  %228 = load ptr, ptr %8, align 8, !tbaa !9
  %229 = load ptr, ptr %3, align 8, !tbaa !37
  %230 = getelementptr inbounds nuw %struct.FillBordersContext, ptr %229, i32 0, i32 10
  %231 = load i32, ptr %5, align 4, !tbaa !11
  %232 = sext i32 %231 to i64
  %233 = getelementptr inbounds [4 x i32], ptr %230, i64 0, i64 %232
  %234 = load i32, ptr %233, align 4, !tbaa !11
  %235 = load ptr, ptr %3, align 8, !tbaa !37
  %236 = getelementptr inbounds nuw %struct.FillBordersContext, ptr %235, i32 0, i32 8
  %237 = load i32, ptr %5, align 4, !tbaa !11
  %238 = sext i32 %237 to i64
  %239 = getelementptr inbounds [4 x %struct.Borders], ptr %236, i64 0, i64 %238
  %240 = getelementptr inbounds nuw %struct.Borders, ptr %239, i32 0, i32 3
  %241 = load i32, ptr %240, align 4, !tbaa !64
  %242 = sub nsw i32 %234, %241
  %243 = load i32, ptr %6, align 4, !tbaa !11
  %244 = add nsw i32 %242, %243
  %245 = sext i32 %244 to i64
  %246 = load i64, ptr %9, align 8, !tbaa !70
  %247 = mul nsw i64 %245, %246
  %248 = getelementptr inbounds i8, ptr %228, i64 %247
  %249 = load ptr, ptr %8, align 8, !tbaa !9
  %250 = load ptr, ptr %3, align 8, !tbaa !37
  %251 = getelementptr inbounds nuw %struct.FillBordersContext, ptr %250, i32 0, i32 10
  %252 = load i32, ptr %5, align 4, !tbaa !11
  %253 = sext i32 %252 to i64
  %254 = getelementptr inbounds [4 x i32], ptr %251, i64 0, i64 %253
  %255 = load i32, ptr %254, align 4, !tbaa !11
  %256 = load ptr, ptr %3, align 8, !tbaa !37
  %257 = getelementptr inbounds nuw %struct.FillBordersContext, ptr %256, i32 0, i32 8
  %258 = load i32, ptr %5, align 4, !tbaa !11
  %259 = sext i32 %258 to i64
  %260 = getelementptr inbounds [4 x %struct.Borders], ptr %257, i64 0, i64 %259
  %261 = getelementptr inbounds nuw %struct.Borders, ptr %260, i32 0, i32 3
  %262 = load i32, ptr %261, align 4, !tbaa !64
  %263 = sub nsw i32 %255, %262
  %264 = sub nsw i32 %263, 1
  %265 = load i32, ptr %6, align 4, !tbaa !11
  %266 = sub nsw i32 %264, %265
  %267 = sext i32 %266 to i64
  %268 = load i64, ptr %9, align 8, !tbaa !70
  %269 = mul nsw i64 %267, %268
  %270 = getelementptr inbounds i8, ptr %249, i64 %269
  %271 = load ptr, ptr %3, align 8, !tbaa !37
  %272 = getelementptr inbounds nuw %struct.FillBordersContext, ptr %271, i32 0, i32 9
  %273 = load i32, ptr %5, align 4, !tbaa !11
  %274 = sext i32 %273 to i64
  %275 = getelementptr inbounds [4 x i32], ptr %272, i64 0, i64 %274
  %276 = load i32, ptr %275, align 4, !tbaa !11
  %277 = sext i32 %276 to i64
  call void @llvm.memcpy.p0.p0.i64(ptr align 1 %248, ptr align 1 %270, i64 %277, i1 false)
  br label %278

278:                                              ; preds = %227
  %279 = load i32, ptr %6, align 4, !tbaa !11
  %280 = add nsw i32 %279, 1
  store i32 %280, ptr %6, align 4, !tbaa !11
  br label %217, !llvm.loop !89

281:                                              ; preds = %217
  call void @llvm.lifetime.end.p0(i64 8, ptr %9) #8
  call void @llvm.lifetime.end.p0(i64 8, ptr %8) #8
  br label %282

282:                                              ; preds = %281
  %283 = load i32, ptr %5, align 4, !tbaa !11
  %284 = add nsw i32 %283, 1
  store i32 %284, ptr %5, align 4, !tbaa !11
  br label %10, !llvm.loop !90

285:                                              ; preds = %10
  call void @llvm.lifetime.end.p0(i64 4, ptr %7) #8
  call void @llvm.lifetime.end.p0(i64 4, ptr %6) #8
  call void @llvm.lifetime.end.p0(i64 4, ptr %5) #8
  ret void
}