; Function Attrs: nofree norecurse nosync nounwind memory(readwrite, inaccessiblemem: none) uwtable
define internal void @mirror_borders8(ptr noundef readonly captures(none) %0, ptr noundef readonly captures(none) %1) #3 {
  %3 = getelementptr inbounds nuw i8, ptr %0, i64 28
  %4 = load i32, ptr %3, align 4, !tbaa !39
  %5 = icmp sgt i32 %4, 0
  br i1 %5, label %.lr.ph104, label %._crit_edge105

.lr.ph104:                                        ; preds = %2
  %6 = getelementptr inbounds nuw i8, ptr %1, i64 64
  %7 = getelementptr inbounds nuw i8, ptr %0, i64 36
  %8 = getelementptr inbounds nuw i8, ptr %0, i64 116
  %9 = getelementptr inbounds nuw i8, ptr %0, i64 100
  br label %10

10:                                               ; preds = %.lr.ph104, %._crit_edge101
  %indvars.iv116 = phi i64 [ 0, %.lr.ph104 ], [ %indvars.iv.next117, %._crit_edge101 ]
  %11 = getelementptr inbounds nuw [8 x ptr], ptr %1, i64 0, i64 %indvars.iv116
  %12 = load ptr, ptr %11, align 8, !tbaa !62
  %13 = getelementptr inbounds nuw [8 x i32], ptr %6, i64 0, i64 %indvars.iv116
  %14 = load i32, ptr %13, align 4, !tbaa !45
  %15 = sext i32 %14 to i64
  %16 = getelementptr inbounds nuw [4 x %struct.Borders], ptr %7, i64 0, i64 %indvars.iv116
  %17 = getelementptr inbounds nuw i8, ptr %16, i64 8
  %18 = load i32, ptr %17, align 4, !tbaa !55
  %19 = getelementptr inbounds nuw [4 x i32], ptr %8, i64 0, i64 %indvars.iv116
  %20 = getelementptr inbounds nuw i8, ptr %16, i64 12
  %21 = load i32, ptr %19, align 4, !tbaa !45
  %22 = load i32, ptr %20, align 4, !tbaa !56
  %23 = sub nsw i32 %21, %22
  %24 = icmp slt i32 %18, %23
  br i1 %24, label %.preheader89.lr.ph, label %.preheader91

.preheader89.lr.ph:                               ; preds = %10
  %25 = getelementptr inbounds nuw i8, ptr %16, i64 4
  %26 = getelementptr inbounds nuw [4 x i32], ptr %9, i64 0, i64 %indvars.iv116
  %27 = sext i32 %18 to i64
  br label %.preheader89

.preheader91.loopexit:                            ; preds = %._crit_edge
  %.pre = load i32, ptr %17, align 4, !tbaa !55
  br label %.preheader91

.preheader91:                                     ; preds = %.preheader91.loopexit, %10
  %28 = phi i32 [ %67, %.preheader91.loopexit ], [ %22, %10 ]
  %29 = phi i32 [ %.pre, %.preheader91.loopexit ], [ %18, %10 ]
  %30 = icmp sgt i32 %29, 0
  br i1 %30, label %.lr.ph98, label %.preheader90

.lr.ph98:                                         ; preds = %.preheader91
  %31 = getelementptr inbounds nuw [4 x i32], ptr %9, i64 0, i64 %indvars.iv116
  br label %74

.preheader89:                                     ; preds = %.preheader89.lr.ph, %._crit_edge
  %indvars.iv110 = phi i64 [ %27, %.preheader89.lr.ph ], [ %indvars.iv.next111, %._crit_edge ]
  %32 = load i32, ptr %16, align 4, !tbaa !52
  %33 = icmp sgt i32 %32, 0
  br i1 %33, label %.lr.ph, label %.preheader

.lr.ph:                                           ; preds = %.preheader89
  %34 = mul nsw i64 %indvars.iv110, %15
  %35 = getelementptr i8, ptr %12, i64 %34
  br label %39

.preheader:                                       ; preds = %39, %.preheader89
  %36 = load i32, ptr %25, align 4, !tbaa !54
  %37 = icmp sgt i32 %36, 0
  br i1 %37, label %.lr.ph95, label %._crit_edge

.lr.ph95:                                         ; preds = %.preheader
  %38 = mul nsw i64 %indvars.iv110, %15
  br label %51

39:                                               ; preds = %.lr.ph, %39
  %indvars.iv = phi i64 [ 0, %.lr.ph ], [ %indvars.iv.next, %39 ]
  %40 = phi i32 [ %32, %.lr.ph ], [ %48, %39 ]
  %41 = shl nsw i32 %40, 1
  %42 = sext i32 %41 to i64
  %43 = xor i64 %indvars.iv, -1
  %44 = getelementptr i8, ptr %35, i64 %42
  %45 = getelementptr i8, ptr %44, i64 %43
  %46 = load i8, ptr %45, align 1, !tbaa !58
  %47 = getelementptr i8, ptr %35, i64 %indvars.iv
  store i8 %46, ptr %47, align 1, !tbaa !58
  %indvars.iv.next = add nuw nsw i64 %indvars.iv, 1
  %48 = load i32, ptr %16, align 4, !tbaa !52
  %49 = sext i32 %48 to i64
  %50 = icmp slt i64 %indvars.iv.next, %49
  br i1 %50, label %39, label %.preheader, !llvm.loop !75

51:                                               ; preds = %.lr.ph95, %51
  %indvars.iv107 = phi i64 [ 0, %.lr.ph95 ], [ %indvars.iv.next108, %51 ]
  %52 = phi i32 [ %36, %.lr.ph95 ], [ %63, %51 ]
  %53 = load i32, ptr %26, align 4, !tbaa !45
  %54 = sext i32 %53 to i64
  %55 = sext i32 %52 to i64
  %56 = sub i64 %38, %55
  %57 = xor i64 %indvars.iv107, -1
  %58 = getelementptr i8, ptr %12, i64 %56
  %59 = getelementptr i8, ptr %58, i64 %54
  %60 = getelementptr i8, ptr %59, i64 %57
  %61 = load i8, ptr %60, align 1, !tbaa !58
  %62 = getelementptr i8, ptr %59, i64 %indvars.iv107
  store i8 %61, ptr %62, align 1, !tbaa !58
  %indvars.iv.next108 = add nuw nsw i64 %indvars.iv107, 1
  %63 = load i32, ptr %25, align 4, !tbaa !54
  %64 = sext i32 %63 to i64
  %65 = icmp slt i64 %indvars.iv.next108, %64
  br i1 %65, label %51, label %._crit_edge, !llvm.loop !76

._crit_edge:                                      ; preds = %51, %.preheader
  %indvars.iv.next111 = add nsw i64 %indvars.iv110, 1
  %66 = load i32, ptr %19, align 4, !tbaa !45
  %67 = load i32, ptr %20, align 4, !tbaa !56
  %68 = sub nsw i32 %66, %67
  %69 = sext i32 %68 to i64
  %70 = icmp slt i64 %indvars.iv.next111, %69
  br i1 %70, label %.preheader89, label %.preheader91.loopexit, !llvm.loop !77

.preheader90.loopexit:                            ; preds = %74
  %.pre119 = load i32, ptr %20, align 4, !tbaa !56
  br label %.preheader90

.preheader90:                                     ; preds = %.preheader90.loopexit, %.preheader91
  %71 = phi i32 [ %.pre119, %.preheader90.loopexit ], [ %28, %.preheader91 ]
  %72 = icmp sgt i32 %71, 0
  br i1 %72, label %.lr.ph100, label %._crit_edge101

.lr.ph100:                                        ; preds = %.preheader90
  %73 = getelementptr inbounds nuw [4 x i32], ptr %9, i64 0, i64 %indvars.iv116
  br label %90

74:                                               ; preds = %.lr.ph98, %74
  %indvars.iv113 = phi i64 [ 0, %.lr.ph98 ], [ %indvars.iv.next114, %74 ]
  %75 = phi i32 [ %29, %.lr.ph98 ], [ %87, %74 ]
  %76 = mul nsw i64 %indvars.iv113, %15
  %77 = getelementptr inbounds i8, ptr %12, i64 %76
  %78 = shl nsw i32 %75, 1
  %79 = trunc nuw nsw i64 %indvars.iv113 to i32
  %80 = xor i32 %79, -1
  %81 = add i32 %78, %80
  %82 = sext i32 %81 to i64
  %83 = mul nsw i64 %82, %15
  %84 = getelementptr inbounds i8, ptr %12, i64 %83
  %85 = load i32, ptr %31, align 4, !tbaa !45
  %86 = sext i32 %85 to i64
  tail call void @llvm.memcpy.p0.p0.i64(ptr align 1 %77, ptr align 1 %84, i64 %86, i1 false)
  %indvars.iv.next114 = add nuw nsw i64 %indvars.iv113, 1
  %87 = load i32, ptr %17, align 4, !tbaa !55
  %88 = sext i32 %87 to i64
  %89 = icmp slt i64 %indvars.iv.next114, %88
  br i1 %89, label %74, label %.preheader90.loopexit, !llvm.loop !78

90:                                               ; preds = %.lr.ph100, %90
  %91 = phi i32 [ %71, %.lr.ph100 ], [ %106, %90 ]
  %.299 = phi i32 [ 0, %.lr.ph100 ], [ %105, %90 ]
  %92 = load i32, ptr %19, align 4, !tbaa !45
  %93 = sub nsw i32 %92, %91
  %94 = add nsw i32 %93, %.299
  %95 = sext i32 %94 to i64
  %96 = mul nsw i64 %95, %15
  %97 = getelementptr inbounds i8, ptr %12, i64 %96
  %98 = xor i32 %.299, -1
  %99 = add i32 %93, %98
  %100 = sext i32 %99 to i64
  %101 = mul nsw i64 %100, %15
  %102 = getelementptr inbounds i8, ptr %12, i64 %101
  %103 = load i32, ptr %73, align 4, !tbaa !45
  %104 = sext i32 %103 to i64
  tail call void @llvm.memcpy.p0.p0.i64(ptr align 1 %97, ptr align 1 %102, i64 %104, i1 false)
  %105 = add nuw nsw i32 %.299, 1
  %106 = load i32, ptr %20, align 4, !tbaa !56
  %107 = icmp slt i32 %105, %106
  br i1 %107, label %90, label %._crit_edge101, !llvm.loop !79

._crit_edge101:                                   ; preds = %90, %.preheader90
  %indvars.iv.next117 = add nuw nsw i64 %indvars.iv116, 1
  %108 = load i32, ptr %3, align 4, !tbaa !39
  %109 = sext i32 %108 to i64
  %110 = icmp slt i64 %indvars.iv.next117, %109
  br i1 %110, label %10, label %._crit_edge105, !llvm.loop !80

._crit_edge105:                                   ; preds = %._crit_edge101, %2
  ret void
}